target datalayout = "e-m:e-p270:32:32-p271:32:32-p272:64:64-i64:64-i128:128-f80:128-n8:16:32:64-S128"
target triple = "x86_64-pc-linux-gnu"

@ett_ieee802154_gts = internal global i32 0, align 4
@.str.33 = private unnamed_addr constant [4 x i8] c"GTS\00", align 1
@hf_ieee802154_gts_count = internal global i32 0, align 4
@hf_ieee802154_gts_permit = internal global i32 0, align 4
@ett_ieee802154_gts_direction = internal global i32 0, align 4
@.str.34 = private unnamed_addr constant [15 x i8] c"GTS Directions\00", align 1
@hf_ieee802154_gts_direction = internal global i32 0, align 4
@.str.35 = private unnamed_addr constant [16 x i8] c"GTS Slot %i: %s\00", align 1
@.str.36 = private unnamed_addr constant [13 x i8] c"Receive Only\00", align 1
@.str.37 = private unnamed_addr constant [14 x i8] c"Transmit Only\00", align 1
@.str.38 = private unnamed_addr constant [27 x i8] c": %i Receive & %i Transmit\00", align 1
@ett_ieee802154_gts_descriptors = internal global i32 0, align 4
@.str.39 = private unnamed_addr constant [16 x i8] c"GTS Descriptors\00", align 1
@hf_ieee802154_gts_address = internal global i32 0, align 4
@.str.40 = private unnamed_addr constant [11 x i8] c", Slot: %i\00", align 1
@.str.41 = private unnamed_addr constant [13 x i8] c", Length: %i\00", align 1

; Function Attrs: null_pointer_is_valid sspstrong uwtable
define hidden void @dissect_ieee802154_gtsinfo(ptr noundef %0, ptr noundef %1, ptr noundef %2, ptr noundef %3) #0 {
  %5 = alloca ptr, align 8
  %6 = alloca ptr, align 8
  %7 = alloca ptr, align 8
  %8 = alloca ptr, align 8
  %9 = alloca ptr, align 8
  %10 = alloca ptr, align 8
  %11 = alloca ptr, align 8
  %12 = alloca i8, align 1
  %13 = alloca i8, align 1
  %14 = alloca i8, align 1
  %15 = alloca i32, align 4
  %16 = alloca i32, align 4
  %17 = alloca ptr, align 8
  %18 = alloca i8, align 1
  %19 = alloca i16, align 2
  %20 = alloca i8, align 1
  %21 = alloca i8, align 1
  store ptr %0, ptr %5, align 8
  store ptr %1, ptr %6, align 8
  store ptr %2, ptr %7, align 8
  store ptr %3, ptr %8, align 8
  call void @llvm.lifetime.start.p0(i64 8, ptr %9) #17
  store ptr null, ptr %9, align 8
  call void @llvm.lifetime.start.p0(i64 8, ptr %10) #17
  store ptr null, ptr %10, align 8
  call void @llvm.lifetime.start.p0(i64 8, ptr %11) #17
  call void @llvm.lifetime.start.p0(i64 1, ptr %12) #17
  call void @llvm.lifetime.start.p0(i64 1, ptr %13) #17
  %22 = load ptr, ptr %5, align 8
  %23 = load ptr, ptr %8, align 8
  %24 = load i32, ptr %23, align 4
  %25 = call zeroext i8 @tvb_get_uint8(ptr noundef %22, i32 noundef %24)
  store i8 %25, ptr %12, align 1
  %26 = load i8, ptr %12, align 1
  %27 = zext i8 %26 to i32
  %28 = and i32 %27, 7
  %29 = trunc i32 %28 to i8
  store i8 %29, ptr %13, align 1
  %30 = load ptr, ptr %7, align 8
  %31 = icmp ne ptr %30, null
  br i1 %31, label %32, label %72

32:                                               ; preds = %4
  %33 = load i8, ptr %13, align 1
  %34 = icmp ne i8 %33, 0
  br i1 %34, label %35, label %46

35:                                               ; preds = %32
  %36 = load ptr, ptr %7, align 8
  %37 = load ptr, ptr %5, align 8
  %38 = load ptr, ptr %8, align 8
  %39 = load i32, ptr %38, align 4
  %40 = load i8, ptr %13, align 1
  %41 = zext i8 %40 to i32
  %42 = mul i32 %41, 3
  %43 = add i32 2, %42
  %44 = load i32, ptr @ett_ieee802154_gts, align 4
  %45 = call ptr @proto_tree_add_subtree(ptr noundef %36, ptr noundef %37, i32 noundef %39, i32 noundef %43, i32 noundef %44, ptr noundef null, ptr noundef @.str.33)
  store ptr %45, ptr %9, align 8
  br label %53

46:                                               ; preds = %32
  %47 = load ptr, ptr %7, align 8
  %48 = load ptr, ptr %5, align 8
  %49 = load ptr, ptr %8, align 8
  %50 = load i32, ptr %49, align 4
  %51 = load i32, ptr @ett_ieee802154_gts, align 4
  %52 = call ptr @proto_tree_add_subtree(ptr noundef %47, ptr noundef %48, i32 noundef %50, i32 noundef 1, i32 noundef %51, ptr noundef null, ptr noundef @.str.33)
  store ptr %52, ptr %9, align 8
  br label %53

53:                                               ; preds = %46, %35
  %54 = load ptr, ptr %9, align 8
  %55 = load i32, ptr @hf_ieee802154_gts_count, align 4
  %56 = load ptr, ptr %5, align 8
  %57 = load ptr, ptr %8, align 8
  %58 = load i32, ptr %57, align 4
  %59 = load i8, ptr %13, align 1
  %60 = zext i8 %59 to i32
  %61 = call ptr @proto_tree_add_uint(ptr noundef %54, i32 noundef %55, ptr noundef %56, i32 noundef %58, i32 noundef 1, i32 noundef %60)
  %62 = load ptr, ptr %9, align 8
  %63 = load i32, ptr @hf_ieee802154_gts_permit, align 4
  %64 = load ptr, ptr %5, align 8
  %65 = load ptr, ptr %8, align 8
  %66 = load i32, ptr %65, align 4
  %67 = load i8, ptr %12, align 1
  %68 = zext i8 %67 to i32
  %69 = and i32 %68, 128
  %70 = sext i32 %69 to i64
  %71 = call ptr @proto_tree_add_boolean(ptr noundef %62, i32 noundef %63, ptr noundef %64, i32 noundef %66, i32 noundef 1, i64 noundef %70)
  br label %72

72:                                               ; preds = %53, %4
  %73 = load ptr, ptr %8, align 8
  %74 = load i32, ptr %73, align 4
  %75 = add i32 %74, 1
  store i32 %75, ptr %73, align 4
  %76 = load i8, ptr %13, align 1
  %77 = icmp ne i8 %76, 0
  br i1 %77, label %78, label %197

78:                                               ; preds = %72
  call void @llvm.lifetime.start.p0(i64 1, ptr %14) #17
  %79 = load ptr, ptr %5, align 8
  %80 = load ptr, ptr %8, align 8
  %81 = load i32, ptr %80, align 4
  %82 = call zeroext i8 @tvb_get_uint8(ptr noundef %79, i32 noundef %81)
  store i8 %82, ptr %14, align 1
  call void @llvm.lifetime.start.p0(i64 4, ptr %15) #17
  store i32 0, ptr %15, align 4
  call void @llvm.lifetime.start.p0(i64 4, ptr %16) #17
  %83 = load ptr, ptr %7, align 8
  %84 = icmp ne ptr %83, null
  br i1 %84, label %85, label %135

85:                                               ; preds = %78
  call void @llvm.lifetime.start.p0(i64 8, ptr %17) #17
  %86 = load ptr, ptr %9, align 8
  %87 = load ptr, ptr %5, align 8
  %88 = load ptr, ptr %8, align 8
  %89 = load i32, ptr %88, align 4
  %90 = load i32, ptr @ett_ieee802154_gts_direction, align 4
  %91 = call ptr @proto_tree_add_subtree(ptr noundef %86, ptr noundef %87, i32 noundef %89, i32 noundef 1, i32 noundef %90, ptr noundef %11, ptr noundef @.str.34)
  store ptr %91, ptr %17, align 8
  store i32 0, ptr %16, align 4
  br label %92

92:                                               ; preds = %125, %85
  %93 = load i32, ptr %16, align 4
  %94 = load i8, ptr %13, align 1
  %95 = zext i8 %94 to i32
  %96 = icmp slt i32 %93, %95
  br i1 %96, label %97, label %128

97:                                               ; preds = %92
  call void @llvm.lifetime.start.p0(i64 1, ptr %18) #17
  %98 = load i8, ptr %14, align 1
  %99 = zext i8 %98 to i32
  %100 = load i32, ptr %16, align 4
  %101 = shl i32 1, %100
  %102 = and i32 %99, %101
  %103 = icmp ne i32 %102, 0
  %104 = zext i1 %103 to i8
  store i8 %104, ptr %18, align 1
  %105 = load ptr, ptr %17, align 8
  %106 = load i32, ptr @hf_ieee802154_gts_direction, align 4
  %107 = load ptr, ptr %5, align 8
  %108 = load ptr, ptr %8, align 8
  %109 = load i32, ptr %108, align 4
  %110 = load i8, ptr %18, align 1, !range !6, !noundef !7
  %111 = trunc i8 %110 to i1
  %112 = zext i1 %111 to i64
  %113 = load i32, ptr %16, align 4
  %114 = add i32 %113, 1
  %115 = load i8, ptr %18, align 1, !range !6, !noundef !7
  %116 = trunc i8 %115 to i1
  %117 = select i1 %116, ptr @.str.36, ptr @.str.37
  %118 = call ptr (ptr, i32, ptr, i32, i32, i64, ptr, ...) @proto_tree_add_boolean_format(ptr noundef %105, i32 noundef %106, ptr noundef %107, i32 noundef %109, i32 noundef 1, i64 noundef %112, ptr noundef @.str.35, i32 noundef %114, ptr noundef %117)
  %119 = load i8, ptr %18, align 1, !range !6, !noundef !7
  %120 = trunc i8 %119 to i1
  br i1 %120, label %121, label %124

121:                                              ; preds = %97
  %122 = load i32, ptr %15, align 4
  %123 = add i32 %122, 1
  store i32 %123, ptr %15, align 4
  br label %124

124:                                              ; preds = %121, %97
  call void @llvm.lifetime.end.p0(i64 1, ptr %18) #17
  br label %125

125:                                              ; preds = %124
  %126 = load i32, ptr %16, align 4
  %127 = add i32 %126, 1
  store i32 %127, ptr %16, align 4
  br label %92, !llvm.loop !10

128:                                              ; preds = %92
  %129 = load ptr, ptr %11, align 8
  %130 = load i32, ptr %15, align 4
  %131 = load i8, ptr %13, align 1
  %132 = zext i8 %131 to i32
  %133 = load i32, ptr %15, align 4
  %134 = sub i32 %132, %133
  call void (ptr, ptr, ...) @proto_item_append_text(ptr noundef %129, ptr noundef @.str.38, i32 noundef %130, i32 noundef %134)
  call void @llvm.lifetime.end.p0(i64 8, ptr %17) #17
  br label %135

135:                                              ; preds = %128, %78
  %136 = load ptr, ptr %8, align 8
  %137 = load i32, ptr %136, align 4
  %138 = add i32 %137, 1
  store i32 %138, ptr %136, align 4
  %139 = load ptr, ptr %9, align 8
  %140 = load ptr, ptr %5, align 8
  %141 = load ptr, ptr %8, align 8
  %142 = load i32, ptr %141, align 4
  %143 = load i8, ptr %13, align 1
  %144 = zext i8 %143 to i32
  %145 = mul i32 %144, 3
  %146 = load i32, ptr @ett_ieee802154_gts_descriptors, align 4
  %147 = call ptr @proto_tree_add_subtree(ptr noundef %139, ptr noundef %140, i32 noundef %142, i32 noundef %145, i32 noundef %146, ptr noundef null, ptr noundef @.str.39)
  store ptr %147, ptr %10, align 8
  store i32 0, ptr %16, align 4
  br label %148

148:                                              ; preds = %193, %135
  %149 = load i32, ptr %16, align 4
  %150 = load i8, ptr %13, align 1
  %151 = zext i8 %150 to i32
  %152 = icmp slt i32 %149, %151
  br i1 %152, label %153, label %196

153:                                              ; preds = %148
  call void @llvm.lifetime.start.p0(i64 2, ptr %19) #17
  %154 = load ptr, ptr %5, align 8
  %155 = load ptr, ptr %8, align 8
  %156 = load i32, ptr %155, align 4
  %157 = call zeroext i16 @tvb_get_letohs(ptr noundef %154, i32 noundef %156)
  store i16 %157, ptr %19, align 2
  call void @llvm.lifetime.start.p0(i64 1, ptr %20) #17
  %158 = load ptr, ptr %5, align 8
  %159 = load ptr, ptr %8, align 8
  %160 = load i32, ptr %159, align 4
  %161 = add i32 %160, 2
  %162 = call zeroext i8 @tvb_get_uint8(ptr noundef %158, i32 noundef %161)
  store i8 %162, ptr %20, align 1
  call void @llvm.lifetime.start.p0(i64 1, ptr %21) #17
  %163 = load i8, ptr %20, align 1
  %164 = zext i8 %163 to i32
  %165 = and i32 %164, 240
  %166 = ashr i32 %165, 4
  %167 = trunc i32 %166 to i8
  store i8 %167, ptr %21, align 1
  %168 = load i8, ptr %20, align 1
  %169 = zext i8 %168 to i32
  %170 = and i32 %169, 15
  %171 = trunc i32 %170 to i8
  store i8 %171, ptr %20, align 1
  %172 = load ptr, ptr %7, align 8
  %173 = icmp ne ptr %172, null
  br i1 %173, label %174, label %189

174:                                              ; preds = %153
  %175 = load ptr, ptr %10, align 8
  %176 = load i32, ptr @hf_ieee802154_gts_address, align 4
  %177 = load ptr, ptr %5, align 8
  %178 = load ptr, ptr %8, align 8
  %179 = load i32, ptr %178, align 4
  %180 = load i16, ptr %19, align 2
  %181 = zext i16 %180 to i32
  %182 = call ptr @proto_tree_add_uint(ptr noundef %175, i32 noundef %176, ptr noundef %177, i32 noundef %179, i32 noundef 3, i32 noundef %181)
  store ptr %182, ptr %11, align 8
  %183 = load ptr, ptr %11, align 8
  %184 = load i8, ptr %20, align 1
  %185 = zext i8 %184 to i32
  call void (ptr, ptr, ...) @proto_item_append_text(ptr noundef %183, ptr noundef @.str.40, i32 noundef %185)
  %186 = load ptr, ptr %11, align 8
  %187 = load i8, ptr %21, align 1
  %188 = zext i8 %187 to i32
  call void (ptr, ptr, ...) @proto_item_append_text(ptr noundef %186, ptr noundef @.str.41, i32 noundef %188)
  br label %189

189:                                              ; preds = %174, %153
  %190 = load ptr, ptr %8, align 8
  %191 = load i32, ptr %190, align 4
  %192 = add i32 %191, 3
  store i32 %192, ptr %190, align 4
  call void @llvm.lifetime.end.p0(i64 1, ptr %21) #17
  call void @llvm.lifetime.end.p0(i64 1, ptr %20) #17
  call void @llvm.lifetime.end.p0(i64 2, ptr %19) #17
  br label %193

193:                                              ; preds = %189
  %194 = load i32, ptr %16, align 4
  %195 = add i32 %194, 1
  store i32 %195, ptr %16, align 4
  br label %148, !llvm.loop !11

196:                                              ; preds = %148
  call void @llvm.lifetime.end.p0(i64 4, ptr %16) #17
  call void @llvm.lifetime.end.p0(i64 4, ptr %15) #17
  call void @llvm.lifetime.end.p0(i64 1, ptr %14) #17
  br label %197

197:                                              ; preds = %196, %72
  call void @llvm.lifetime.end.p0(i64 1, ptr %13) #17
  call void @llvm.lifetime.end.p0(i64 1, ptr %12) #17
  call void @llvm.lifetime.end.p0(i64 8, ptr %11) #17
  call void @llvm.lifetime.end.p0(i64 8, ptr %10) #17
  call void @llvm.lifetime.end.p0(i64 8, ptr %9) #17
  ret void
}