; Function Attrs: null_pointer_is_valid sspstrong uwtable
define hidden void @dissect_ieee802154_gtsinfo(ptr noundef %0, ptr readnone captures(none) %1, ptr noundef %2, ptr noundef captures(none) %3) local_unnamed_addr #0 {
  %5 = alloca ptr, align 8
  call void @llvm.lifetime.start.p0(i64 8, ptr nonnull %5) #19
  %6 = load i32, ptr %3, align 4
  %7 = tail call zeroext i8 @tvb_get_uint8(ptr noundef %0, i32 noundef %6)
  %8 = and i8 %7, 7
  %.not = icmp eq ptr %2, null
  br i1 %.not, label %22, label %9

9:                                                ; preds = %4
  %.not73 = icmp eq i8 %8, 0
  %10 = load i32, ptr %3, align 4
  %narrow = mul nuw nsw i8 %8, 3
  %narrow74 = add nuw nsw i8 %narrow, 2
  %narrow87 = select i1 %.not73, i8 1, i8 %narrow74
  %.sink = zext nneg i8 %narrow87 to i32
  %11 = load i32, ptr @ett_ieee802154_gts, align 4
  %12 = tail call ptr @proto_tree_add_subtree(ptr noundef nonnull %2, ptr noundef %0, i32 noundef %10, i32 noundef %.sink, i32 noundef %11, ptr noundef null, ptr noundef nonnull @.str.33)
  %13 = load i32, ptr @hf_ieee802154_gts_count, align 4
  %14 = load i32, ptr %3, align 4
  %15 = zext nneg i8 %8 to i32
  %16 = tail call ptr @proto_tree_add_uint(ptr noundef %12, i32 noundef %13, ptr noundef %0, i32 noundef %14, i32 noundef 1, i32 noundef %15)
  %17 = load i32, ptr @hf_ieee802154_gts_permit, align 4
  %18 = load i32, ptr %3, align 4
  %19 = and i8 %7, -128
  %20 = zext i8 %19 to i64
  %21 = tail call ptr @proto_tree_add_boolean(ptr noundef %12, i32 noundef %17, ptr noundef %0, i32 noundef %18, i32 noundef 1, i64 noundef %20)
  br label %22

22:                                               ; preds = %9, %4
  %.0 = phi ptr [ %12, %9 ], [ null, %4 ]
  %23 = load i32, ptr %3, align 4
  %24 = add i32 %23, 1
  store i32 %24, ptr %3, align 4
  %.not75 = icmp eq i8 %8, 0
  br i1 %.not75, label %.loopexit, label %25

25:                                               ; preds = %22
  %26 = tail call zeroext i8 @tvb_get_uint8(ptr noundef %0, i32 noundef %24)
  br i1 %.not, label %._crit_edge, label %27

._crit_edge:                                      ; preds = %25
  %.pre84 = zext nneg i8 %8 to i32
  br label %47

27:                                               ; preds = %25
  %28 = load i32, ptr %3, align 4
  %29 = load i32, ptr @ett_ieee802154_gts_direction, align 4
  %30 = call ptr @proto_tree_add_subtree(ptr noundef %.0, ptr noundef %0, i32 noundef %28, i32 noundef 1, i32 noundef %29, ptr noundef nonnull %5, ptr noundef nonnull @.str.34)
  %31 = zext nneg i8 %8 to i32
  %32 = zext i8 %26 to i32
  br label %33

33:                                               ; preds = %27, %33
  %.06577 = phi i32 [ 0, %27 ], [ %spec.select, %33 ]
  %.06776 = phi i32 [ 0, %27 ], [ %40, %33 ]
  %34 = shl nuw nsw i32 1, %.06776
  %35 = and i32 %34, %32
  %36 = icmp ne i32 %35, 0
  %37 = load i32, ptr @hf_ieee802154_gts_direction, align 4
  %38 = load i32, ptr %3, align 4
  %39 = zext i1 %36 to i64
  %40 = add nuw nsw i32 %.06776, 1
  %41 = select i1 %36, ptr @.str.36, ptr @.str.37
  %42 = call ptr (ptr, i32, ptr, i32, i32, i64, ptr, ...) @proto_tree_add_boolean_format(ptr noundef %30, i32 noundef %37, ptr noundef %0, i32 noundef %38, i32 noundef 1, i64 noundef %39, ptr noundef nonnull @.str.35, i32 noundef %40, ptr noundef nonnull %41)
  %43 = zext i1 %36 to i32
  %spec.select = add i32 %.06577, %43
  %exitcond.not = icmp eq i32 %40, %31
  br i1 %exitcond.not, label %44, label %33, !llvm.loop !10

44:                                               ; preds = %33
  %45 = load ptr, ptr %5, align 8
  %46 = sub i32 %31, %spec.select
  call void (ptr, ptr, ...) @proto_item_append_text(ptr noundef %45, ptr noundef nonnull @.str.38, i32 noundef %spec.select, i32 noundef %46)
  br label %47

47:                                               ; preds = %._crit_edge, %44
  %.pre-phi = phi i32 [ %.pre84, %._crit_edge ], [ %31, %44 ]
  %48 = load i32, ptr %3, align 4
  %49 = add i32 %48, 1
  store i32 %49, ptr %3, align 4
  %50 = mul nuw nsw i32 %.pre-phi, 3
  %51 = load i32, ptr @ett_ieee802154_gts_descriptors, align 4
  %52 = call ptr @proto_tree_add_subtree(ptr noundef %.0, ptr noundef %0, i32 noundef %49, i32 noundef %50, i32 noundef %51, ptr noundef null, ptr noundef nonnull @.str.39)
  %.pre83 = load i32, ptr %3, align 4
  br i1 %.not, label %.split.us, label %.split

.split.us:                                        ; preds = %47, %.split.us
  %53 = phi i32 [ %59, %.split.us ], [ %.pre83, %47 ]
  %.16878.us = phi i32 [ %60, %.split.us ], [ 0, %47 ]
  %54 = call zeroext i16 @tvb_get_letohs(ptr noundef %0, i32 noundef %53)
  %55 = load i32, ptr %3, align 4
  %56 = add i32 %55, 2
  %57 = call zeroext i8 @tvb_get_uint8(ptr noundef %0, i32 noundef %56)
  %58 = load i32, ptr %3, align 4
  %59 = add i32 %58, 3
  store i32 %59, ptr %3, align 4
  %60 = add nuw nsw i32 %.16878.us, 1
  %exitcond82.not = icmp eq i32 %60, %.pre-phi
  br i1 %exitcond82.not, label %.loopexit, label %.split.us, !llvm.loop !11

.split:                                           ; preds = %47, %.split
  %61 = phi i32 [ %76, %.split ], [ %.pre83, %47 ]
  %.16878 = phi i32 [ %77, %.split ], [ 0, %47 ]
  %62 = call zeroext i16 @tvb_get_letohs(ptr noundef %0, i32 noundef %61)
  %63 = load i32, ptr %3, align 4
  %64 = add i32 %63, 2
  %65 = call zeroext i8 @tvb_get_uint8(ptr noundef %0, i32 noundef %64)
  %66 = and i8 %65, 15
  %67 = lshr i8 %65, 4
  %68 = load i32, ptr @hf_ieee802154_gts_address, align 4
  %69 = load i32, ptr %3, align 4
  %70 = zext i16 %62 to i32
  %71 = call ptr @proto_tree_add_uint(ptr noundef %52, i32 noundef %68, ptr noundef %0, i32 noundef %69, i32 noundef 3, i32 noundef %70)
  store ptr %71, ptr %5, align 8
  %72 = zext nneg i8 %66 to i32
  call void (ptr, ptr, ...) @proto_item_append_text(ptr noundef %71, ptr noundef nonnull @.str.40, i32 noundef %72)
  %73 = load ptr, ptr %5, align 8
  %74 = zext nneg i8 %67 to i32
  call void (ptr, ptr, ...) @proto_item_append_text(ptr noundef %73, ptr noundef nonnull @.str.41, i32 noundef %74)
  %75 = load i32, ptr %3, align 4
  %76 = add i32 %75, 3
  store i32 %76, ptr %3, align 4
  %77 = add nuw nsw i32 %.16878, 1
  %exitcond80.not = icmp eq i32 %77, %.pre-phi
  br i1 %exitcond80.not, label %.loopexit, label %.split, !llvm.loop !11

.loopexit:                                        ; preds = %.split, %.split.us, %22
  call void @llvm.lifetime.end.p0(i64 8, ptr nonnull %5) #19
  ret void
}